; Function Attrs: mustprogress uwtable
define hidden noundef zeroext i1 @_ZNK4cvc58internal9BitVector14signedLessThanERKS1_(ptr noundef nonnull align 8 dereferenceable(24) %0, ptr noundef nonnull align 8 dereferenceable(24) %1) local_unnamed_addr #3 align 2 personality ptr @__gxx_personality_v0 {
  %3 = alloca %"class.cvc5::internal::Integer", align 8
  %4 = alloca %"class.cvc5::internal::Integer", align 8
  call void @llvm.lifetime.start.p0(i64 16, ptr nonnull %3) #16
  call void @_ZNK4cvc58internal9BitVector15toSignedIntegerEv(ptr dead_on_unwind nonnull writable sret(%"class.cvc5::internal::Integer") align 8 %3, ptr noundef nonnull align 8 dereferenceable(24) %0)
  call void @llvm.lifetime.start.p0(i64 16, ptr nonnull %4) #16
  invoke void @_ZNK4cvc58internal9BitVector15toSignedIntegerEv(ptr dead_on_unwind nonnull writable sret(%"class.cvc5::internal::Integer") align 8 %4, ptr noundef nonnull align 8 dereferenceable(24) %1)
          to label %5 unwind label %14

5:                                                ; preds = %2
  %6 = invoke noundef zeroext i1 @_ZNK4cvc58internal7IntegerltERKS1_(ptr noundef nonnull align 8 dereferenceable(16) %3, ptr noundef nonnull align 8 dereferenceable(16) %4)
          to label %7 unwind label %16

7:                                                ; preds = %5
  invoke void @__gmpz_clear(ptr noundef nonnull align 8 dereferenceable(16) %4)
          to label %_ZN4cvc58internal7IntegerD2Ev.exit unwind label %8

8:                                                ; preds = %7
  %9 = landingpad { ptr, i32 }
          catch ptr null
  %10 = extractvalue { ptr, i32 } %9, 0
  call void @__clang_call_terminate(ptr %10) #17
  unreachable

_ZN4cvc58internal7IntegerD2Ev.exit:               ; preds = %7
  call void @llvm.lifetime.end.p0(i64 16, ptr nonnull %4) #16
  invoke void @__gmpz_clear(ptr noundef nonnull align 8 dereferenceable(16) %3)
          to label %_ZN4cvc58internal7IntegerD2Ev.exit5 unwind label %11

11:                                               ; preds = %_ZN4cvc58internal7IntegerD2Ev.exit
  %12 = landingpad { ptr, i32 }
          catch ptr null
  %13 = extractvalue { ptr, i32 } %12, 0
  call void @__clang_call_terminate(ptr %13) #17
  unreachable

_ZN4cvc58internal7IntegerD2Ev.exit5:              ; preds = %_ZN4cvc58internal7IntegerD2Ev.exit
  call void @llvm.lifetime.end.p0(i64 16, ptr nonnull %3) #16
  ret i1 %6

14:                                               ; preds = %2
  %15 = landingpad { ptr, i32 }
          cleanup
  br label %_ZN4cvc58internal7IntegerD2Ev.exit6

16:                                               ; preds = %5
  %17 = landingpad { ptr, i32 }
          cleanup
  invoke void @__gmpz_clear(ptr noundef nonnull align 8 dereferenceable(16) %4)
          to label %_ZN4cvc58internal7IntegerD2Ev.exit6 unwind label %18

18:                                               ; preds = %16
  %19 = landingpad { ptr, i32 }
          catch ptr null
  %20 = extractvalue { ptr, i32 } %19, 0
  call void @__clang_call_terminate(ptr %20) #17
  unreachable

_ZN4cvc58internal7IntegerD2Ev.exit6:              ; preds = %16, %14
  %.pn = phi { ptr, i32 } [ %15, %14 ], [ %17, %16 ]
  call void @llvm.lifetime.end.p0(i64 16, ptr nonnull %4) #16
  invoke void @__gmpz_clear(ptr noundef nonnull align 8 dereferenceable(16) %3)
          to label %_ZN4cvc58internal7IntegerD2Ev.exit7 unwind label %21

21:                                               ; preds = %_ZN4cvc58internal7IntegerD2Ev.exit6
  %22 = landingpad { ptr, i32 }
          catch ptr null
  %23 = extractvalue { ptr, i32 } %22, 0
  call void @__clang_call_terminate(ptr %23) #17
  unreachable

_ZN4cvc58internal7IntegerD2Ev.exit7:              ; preds = %_ZN4cvc58internal7IntegerD2Ev.exit6
  call void @llvm.lifetime.end.p0(i64 16, ptr nonnull %3) #16
  resume { ptr, i32 } %.pn
}